; Function Attrs: nofree nosync nounwind memory(read, argmem: readwrite, inaccessiblemem: none) uwtable
define i32 @Dau_DsdCountAnds_rec(ptr noundef %0, ptr noundef %1, ptr noundef %2) local_unnamed_addr #9 {
  %4 = load ptr, ptr %1, align 8, !tbaa !19
  %5 = load i8, ptr %4, align 1, !tbaa !3
  %6 = icmp eq i8 %5, 33
  br i1 %6, label %7, label %9

7:                                                ; preds = %3
  %8 = getelementptr inbounds nuw i8, ptr %4, i64 1
  store ptr %8, ptr %1, align 8, !tbaa !19
  %.pre = load i8, ptr %8, align 1, !tbaa !3
  br label %9

9:                                                ; preds = %7, %3
  %10 = phi i8 [ %.pre, %7 ], [ %5, %3 ]
  %.promoted = phi ptr [ %8, %7 ], [ %4, %3 ]
  %11 = add i8 %10, -65
  %or.cond64 = icmp ult i8 %11, 6
  %12 = add i8 %10, -48
  %or.cond6065 = icmp ult i8 %12, 10
  %or.cond6266 = or i1 %or.cond64, %or.cond6065
  br i1 %or.cond6266, label %.critedge, label %.critedge2

.critedge:                                        ; preds = %9, %.critedge
  %13 = phi ptr [ %14, %.critedge ], [ %.promoted, %9 ]
  %14 = getelementptr inbounds nuw i8, ptr %13, i64 1
  store ptr %14, ptr %1, align 8, !tbaa !19
  %15 = load i8, ptr %14, align 1, !tbaa !3
  %16 = add i8 %15, -65
  %or.cond = icmp ult i8 %16, 6
  %17 = add i8 %15, -48
  %or.cond60 = icmp ult i8 %17, 10
  %or.cond62 = or i1 %or.cond, %or.cond60
  br i1 %or.cond62, label %.critedge, label %.critedge2, !llvm.loop !26

.critedge2:                                       ; preds = %.critedge, %9
  %.lcssa63 = phi ptr [ %.promoted, %9 ], [ %14, %.critedge ]
  %.lcssa = phi i8 [ %10, %9 ], [ %15, %.critedge ]
  %18 = icmp eq i8 %.lcssa, 60
  br i1 %18, label %19, label %31

19:                                               ; preds = %.critedge2
  %20 = ptrtoint ptr %.lcssa63 to i64
  %21 = ptrtoint ptr %0 to i64
  %22 = sub i64 %20, %21
  %23 = getelementptr inbounds i32, ptr %2, i64 %22
  %24 = load i32, ptr %23, align 4, !tbaa !6
  %25 = sext i32 %24 to i64
  %26 = getelementptr inbounds i8, ptr %0, i64 %25
  %27 = getelementptr inbounds nuw i8, ptr %26, i64 1
  %28 = load i8, ptr %27, align 1, !tbaa !3
  %29 = icmp eq i8 %28, 123
  br i1 %29, label %30, label %.thread82

30:                                               ; preds = %19
  store ptr %27, ptr %1, align 8, !tbaa !19
  %.pre80 = load i8, ptr %27, align 1, !tbaa !3
  br label %31

31:                                               ; preds = %30, %.critedge2
  %32 = phi i8 [ %.pre80, %30 ], [ %.lcssa, %.critedge2 ]
  %33 = phi ptr [ %27, %30 ], [ %.lcssa63, %.critedge2 ]
  %34 = add i8 %32, -97
  %or.cond61 = icmp ult i8 %34, 26
  br i1 %or.cond61, label %.loopexit, label %35

35:                                               ; preds = %31
  switch i8 %32, label %.loopexit [
    i8 40, label %36
    i8 91, label %36
    i8 60, label %.thread82
    i8 123, label %.thread82
  ]

36:                                               ; preds = %35, %35
  %37 = icmp eq i8 %32, 40
  %38 = select i1 %37, i32 1, i32 3
  %39 = ptrtoint ptr %33 to i64
  %40 = ptrtoint ptr %0 to i64
  %41 = sub i64 %39, %40
  %42 = getelementptr inbounds i32, ptr %2, i64 %41
  %43 = load i32, ptr %42, align 4, !tbaa !6
  %44 = sext i32 %43 to i64
  %45 = getelementptr inbounds i8, ptr %0, i64 %44
  %storemerge5871 = getelementptr inbounds nuw i8, ptr %33, i64 1
  store ptr %storemerge5871, ptr %1, align 8, !tbaa !19
  %46 = icmp ult ptr %storemerge5871, %45
  br i1 %46, label %.lr.ph73, label %._crit_edge

.lr.ph73:                                         ; preds = %36, %.lr.ph73
  %.05372 = phi i32 [ %49, %.lr.ph73 ], [ 0, %36 ]
  %47 = tail call i32 @Dau_DsdCountAnds_rec(ptr noundef %0, ptr noundef nonnull %1, ptr noundef %2)
  %48 = add i32 %.05372, %38
  %49 = add i32 %48, %47
  %50 = load ptr, ptr %1, align 8, !tbaa !19
  %storemerge58 = getelementptr inbounds nuw i8, ptr %50, i64 1
  store ptr %storemerge58, ptr %1, align 8, !tbaa !19
  %51 = icmp ult ptr %storemerge58, %45
  br i1 %51, label %.lr.ph73, label %._crit_edge, !llvm.loop !27

._crit_edge:                                      ; preds = %.lr.ph73, %36
  %.053.lcssa = phi i32 [ 0, %36 ], [ %49, %.lr.ph73 ]
  %52 = sub nsw i32 %.053.lcssa, %38
  br label %.loopexit

.thread82:                                        ; preds = %19, %35, %35
  %53 = phi ptr [ %33, %35 ], [ %33, %35 ], [ %.lcssa63, %19 ]
  %54 = ptrtoint ptr %53 to i64
  %55 = ptrtoint ptr %0 to i64
  %56 = sub i64 %54, %55
  %57 = getelementptr inbounds i32, ptr %2, i64 %56
  %58 = load i32, ptr %57, align 4, !tbaa !6
  %59 = sext i32 %58 to i64
  %60 = getelementptr inbounds i8, ptr %0, i64 %59
  %storemerge68 = getelementptr inbounds nuw i8, ptr %53, i64 1
  store ptr %storemerge68, ptr %1, align 8, !tbaa !19
  %61 = icmp ult ptr %storemerge68, %60
  br i1 %61, label %.lr.ph, label %.loopexit

.lr.ph:                                           ; preds = %.thread82, %.lr.ph
  %.05269 = phi i32 [ %63, %.lr.ph ], [ 3, %.thread82 ]
  %62 = tail call i32 @Dau_DsdCountAnds_rec(ptr noundef %0, ptr noundef nonnull %1, ptr noundef %2)
  %63 = add nsw i32 %62, %.05269
  %64 = load ptr, ptr %1, align 8, !tbaa !19
  %storemerge = getelementptr inbounds nuw i8, ptr %64, i64 1
  store ptr %storemerge, ptr %1, align 8, !tbaa !19
  %65 = icmp ult ptr %storemerge, %60
  br i1 %65, label %.lr.ph, label %.loopexit, !llvm.loop !28

.loopexit:                                        ; preds = %.lr.ph, %.thread82, %35, %31, %._crit_edge
  %.0 = phi i32 [ %52, %._crit_edge ], [ 0, %31 ], [ 0, %35 ], [ 3, %.thread82 ], [ %63, %.lr.ph ]
  ret i32 %.0
}